target datalayout = "e-m:e-p270:32:32-p271:32:32-p272:64:64-i64:64-i128:128-f80:128-n8:16:32:64-S128"
target triple = "x86_64-pc-linux-gnu"

%struct.FFDrawContext = type { ptr, i32, i32, [4 x i32], [4 x i8], [4 x i8], i8, i8, i32, i32, i32, [3 x [3 x double]] }

; Function Attrs: nounwind uwtable
define i32 @ff_draw_round_to_sub(ptr noundef %0, i32 noundef %1, i32 noundef %2, i32 noundef %3) #0 {
  %5 = alloca i32, align 4
  %6 = alloca ptr, align 8
  %7 = alloca i32, align 4
  %8 = alloca i32, align 4
  %9 = alloca i32, align 4
  %10 = alloca i32, align 4
  %11 = alloca i32, align 4
  store ptr %0, ptr %6, align 8, !tbaa !24
  store i32 %1, ptr %7, align 4, !tbaa !9
  store i32 %2, ptr %8, align 4, !tbaa !9
  store i32 %3, ptr %9, align 4, !tbaa !9
  call void @llvm.lifetime.start.p0(i64 4, ptr %10) #8
  %12 = load i32, ptr %7, align 4, !tbaa !9
  %13 = icmp ne i32 %12, 0
  br i1 %13, label %14, label %19

14:                                               ; preds = %4
  %15 = load ptr, ptr %6, align 8, !tbaa !24
  %16 = getelementptr inbounds nuw %struct.FFDrawContext, ptr %15, i32 0, i32 7
  %17 = load i8, ptr %16, align 1, !tbaa !44
  %18 = zext i8 %17 to i32
  br label %24

19:                                               ; preds = %4
  %20 = load ptr, ptr %6, align 8, !tbaa !24
  %21 = getelementptr inbounds nuw %struct.FFDrawContext, ptr %20, i32 0, i32 6
  %22 = load i8, ptr %21, align 8, !tbaa !42
  %23 = zext i8 %22 to i32
  br label %24

24:                                               ; preds = %19, %14
  %25 = phi i32 [ %18, %14 ], [ %23, %19 ]
  store i32 %25, ptr %10, align 4, !tbaa !9
  %26 = load i32, ptr %10, align 4, !tbaa !9
  %27 = icmp ne i32 %26, 0
  br i1 %27, label %30, label %28

28:                                               ; preds = %24
  %29 = load i32, ptr %9, align 4, !tbaa !9
  store i32 %29, ptr %5, align 4
  store i32 1, ptr %11, align 4
  br label %54

30:                                               ; preds = %24
  %31 = load i32, ptr %8, align 4, !tbaa !9
  %32 = icmp sge i32 %31, 0
  br i1 %32, label %33, label %48

33:                                               ; preds = %30
  %34 = load i32, ptr %8, align 4, !tbaa !9
  %35 = icmp ne i32 %34, 0
  br i1 %35, label %36, label %40

36:                                               ; preds = %33
  %37 = load i32, ptr %10, align 4, !tbaa !9
  %38 = shl i32 1, %37
  %39 = sub nsw i32 %38, 1
  br label %44

40:                                               ; preds = %33
  %41 = load i32, ptr %10, align 4, !tbaa !9
  %42 = sub i32 %41, 1
  %43 = shl i32 1, %42
  br label %44

44:                                               ; preds = %40, %36
  %45 = phi i32 [ %39, %36 ], [ %43, %40 ]
  %46 = load i32, ptr %9, align 4, !tbaa !9
  %47 = add nsw i32 %46, %45
  store i32 %47, ptr %9, align 4, !tbaa !9
  br label %48

48:                                               ; preds = %44, %30
  %49 = load i32, ptr %9, align 4, !tbaa !9
  %50 = load i32, ptr %10, align 4, !tbaa !9
  %51 = ashr i32 %49, %50
  %52 = load i32, ptr %10, align 4, !tbaa !9
  %53 = shl i32 %51, %52
  store i32 %53, ptr %5, align 4
  store i32 1, ptr %11, align 4
  br label %54

54:                                               ; preds = %48, %28
  call void @llvm.lifetime.end.p0(i64 4, ptr %10) #8
  %55 = load i32, ptr %5, align 4
  ret i32 %55
}