; Function Attrs: mustprogress nofree norecurse nosync nounwind willreturn memory(argmem: read) uwtable
define i32 @ff_draw_round_to_sub(ptr noundef readonly captures(none) %0, i32 noundef %1, i32 noundef %2, i32 noundef %3) local_unnamed_addr #8 {
  %.not = icmp eq i32 %1, 0
  %.in.in.v = select i1 %.not, i64 40, i64 41
  %.in.in = getelementptr inbounds nuw i8, ptr %0, i64 %.in.in.v
  %.in = load i8, ptr %.in.in, align 1, !tbaa !15
  %5 = zext i8 %.in to i32
  %.not16 = icmp eq i8 %.in, 0
  br i1 %.not16, label %16, label %6

6:                                                ; preds = %4
  %7 = icmp sgt i32 %2, -1
  br i1 %7, label %8, label %._crit_edge

._crit_edge:                                      ; preds = %6
  %.pre = shl nsw i32 -1, %5
  br label %14

8:                                                ; preds = %6
  %.not17 = icmp eq i32 %2, 0
  %notmask = shl nsw i32 -1, %5
  %9 = xor i32 %notmask, -1
  %10 = add nsw i32 %5, -1
  %11 = shl nuw i32 1, %10
  %12 = select i1 %.not17, i32 %11, i32 %9
  %13 = add nsw i32 %12, %3
  br label %14

14:                                               ; preds = %._crit_edge, %8
  %.pre-phi = phi i32 [ %.pre, %._crit_edge ], [ %notmask, %8 ]
  %.013 = phi i32 [ %3, %._crit_edge ], [ %13, %8 ]
  %15 = and i32 %.013, %.pre-phi
  br label %16

16:                                               ; preds = %4, %14
  %.0 = phi i32 [ %15, %14 ], [ %3, %4 ]
  ret i32 %.0
}